target datalayout = "e-m:e-p270:32:32-p271:32:32-p272:64:64-i64:64-i128:128-f80:128-n8:16:32:64-S128"
target triple = "x86_64-pc-linux-gnu"

; Function Attrs: nounwind uwtable
define hidden i32 @NET_IsZeroAddr(ptr noundef %0) #0 {
  %2 = alloca i32, align 4
  %3 = alloca ptr, align 8
  %4 = alloca i32, align 4
  store ptr %0, ptr %3, align 8
  store i32 0, ptr %4, align 4
  br label %5

5:                                                ; preds = %18, %1
  %6 = load i32, ptr %4, align 4
  %7 = icmp slt i32 %6, 16
  br i1 %7, label %8, label %21

8:                                                ; preds = %5
  %9 = load ptr, ptr %3, align 8
  %10 = load i32, ptr %4, align 4
  %11 = sext i32 %10 to i64
  %12 = getelementptr inbounds i8, ptr %9, i64 %11
  %13 = load i8, ptr %12, align 1
  %14 = sext i8 %13 to i32
  %15 = icmp ne i32 %14, 0
  br i1 %15, label %16, label %17

16:                                               ; preds = %8
  store i32 0, ptr %2, align 4
  br label %22

17:                                               ; preds = %8
  br label %18

18:                                               ; preds = %17
  %19 = load i32, ptr %4, align 4
  %20 = add nsw i32 %19, 1
  store i32 %20, ptr %4, align 4
  br label %5, !llvm.loop !9

21:                                               ; preds = %5
  store i32 1, ptr %2, align 4
  br label %22

22:                                               ; preds = %21, %16
  %23 = load i32, ptr %2, align 4
  ret i32 %23
}