; Function Attrs: nofree norecurse nosync nounwind memory(argmem: read) uwtable
define hidden range(i32 0, 2) i32 @NET_IsZeroAddr(ptr nocapture noundef readonly %0) local_unnamed_addr #11 {
  br label %3

2:                                                ; preds = %3
  %indvars.iv.next = add nuw nsw i64 %indvars.iv, 1
  %exitcond.not = icmp eq i64 %indvars.iv.next, 16
  br i1 %exitcond.not, label %6, label %3, !llvm.loop !9

3:                                                ; preds = %1, %2
  %indvars.iv = phi i64 [ 0, %1 ], [ %indvars.iv.next, %2 ]
  %4 = getelementptr inbounds i8, ptr %0, i64 %indvars.iv
  %5 = load i8, ptr %4, align 1
  %.not = icmp eq i8 %5, 0
  br i1 %.not, label %2, label %6

6:                                                ; preds = %2, %3
  %.04 = phi i32 [ 0, %3 ], [ 1, %2 ]
  ret i32 %.04
}